; Function Attrs: mustprogress nofree norecurse nounwind willreturn memory(argmem: read) uwtable
define internal fastcc i64 @_ZL16getCompileFormatPKc(ptr nocapture noundef readonly %0) unnamed_addr #11 personality ptr @__gxx_personality_v0 {
  %2 = tail call i32 @strcmp(ptr noundef nonnull dereferenceable(1) %0, ptr noundef nonnull dereferenceable(5) @.str.152) #24
  %3 = icmp eq i32 %2, 0
  br i1 %3, label %29, label %4

4:                                                ; preds = %1
  %5 = tail call i32 @strcmp(ptr noundef nonnull dereferenceable(1) %0, ptr noundef nonnull dereferenceable(7) @.str.153) #24
  %6 = icmp eq i32 %5, 0
  br i1 %6, label %29, label %7

7:                                                ; preds = %4
  %8 = tail call i32 @strcmp(ptr noundef nonnull dereferenceable(1) %0, ptr noundef nonnull dereferenceable(8) @.str.154) #24
  %9 = icmp eq i32 %8, 0
  br i1 %9, label %29, label %10

10:                                               ; preds = %7
  %11 = tail call i32 @strcmp(ptr noundef nonnull dereferenceable(1) %0, ptr noundef nonnull dereferenceable(8) @.str.155) #24
  %12 = icmp eq i32 %11, 0
  br i1 %12, label %29, label %13

13:                                               ; preds = %10
  %14 = tail call i32 @strcmp(ptr noundef nonnull dereferenceable(1) %0, ptr noundef nonnull dereferenceable(11) @.str.156) #24
  %15 = icmp eq i32 %14, 0
  br i1 %15, label %29, label %16

16:                                               ; preds = %13
  %17 = tail call i32 @strcmp(ptr noundef nonnull dereferenceable(1) %0, ptr noundef nonnull dereferenceable(10) @.str.157) #24
  %18 = icmp eq i32 %17, 0
  br i1 %18, label %29, label %19

19:                                               ; preds = %16
  %20 = tail call i32 @strcmp(ptr noundef nonnull dereferenceable(1) %0, ptr noundef nonnull dereferenceable(15) @.str.158) #24
  %21 = icmp eq i32 %20, 0
  br i1 %21, label %29, label %22

22:                                               ; preds = %19
  %23 = tail call i32 @strcmp(ptr noundef nonnull dereferenceable(1) %0, ptr noundef nonnull dereferenceable(12) @.str.159) #24
  %24 = icmp eq i32 %23, 0
  br i1 %24, label %29, label %25

25:                                               ; preds = %22
  %26 = tail call i32 @strcmp(ptr noundef nonnull dereferenceable(1) %0, ptr noundef nonnull dereferenceable(5) @.str.160) #24
  %27 = icmp eq i32 %26, 0
  %28 = select i1 %27, i64 4294967296, i64 0
  br label %29

29:                                               ; preds = %25, %22, %19, %16, %13, %10, %7, %4, %1
  %.sroa.0.0 = phi i64 [ 0, %1 ], [ 1, %4 ], [ 2, %7 ], [ 3, %10 ], [ 4, %13 ], [ 5, %16 ], [ 6, %19 ], [ 7, %22 ], [ 8, %25 ]
  %.sroa.10.0 = phi i64 [ 4294967296, %1 ], [ 4294967296, %4 ], [ 4294967296, %7 ], [ 4294967296, %10 ], [ 4294967296, %13 ], [ 4294967296, %16 ], [ 4294967296, %19 ], [ 4294967296, %22 ], [ %28, %25 ]
  %.sroa.0.0.insert.insert = or disjoint i64 %.sroa.10.0, %.sroa.0.0
  ret i64 %.sroa.0.0.insert.insert
}